(lp1
S'not in db'
p2
ag2
ag2
ag2
ag2
ag2
ag2
ag2
ag2
ag2
ag2
ag2
ag2
ag2
ag2
ag2
ag2
aF77.156000000000006
ag2
ag2
aF101.90300000000001
aF150.874
aF134.01300000000001
ag2
ag2
ag2
ag2
ag2
ag2
aF96.364000000000004
ag2
aF142.94399999999999
ag2
ag2
ag2
ag2
ag2
aF122.35599999999999
aF117.015
aF122.35599999999999
aF123.006
ag2
ag2
ag2
aF125.89700000000001
aF77.963999999999999
aF120.02800000000001
ag2
aF93.091999999999999
aF117.015
aF122.964
aF141.47399999999999
ag2
ag2
ag2
aF82.492000000000004
ag2
aF125.056
ag2
aF117.015
aF87.049999999999997
aF83.019999999999996
aF125.056
aF113.983
aF120.18600000000001
aF105.027
aF123.006
aF112.104
aF125.89700000000001
aF160.11000000000001
aF77.963999999999999
aF82.465999999999994
aF121.98399999999999
aF158.07900000000001
aF122.35599999999999
aF83.010999999999996
aF153.267
aF116.116
aF93.091999999999999
ag2
ag2
ag2
aF137.25999999999999
ag2
aF138.73400000000001
aF132.77500000000001
aF104.44499999999999
aF71.254000000000005
ag2
aF104.91500000000001
ag2
aF110.008
ag2
aF83.956000000000003
aF138.577
ag2
aI0
ag2
ag2
ag2
aF96.039000000000001
aF99.128
ag2
aF120.194
aF134.22800000000001
aF114.035
ag2
ag2
ag2
ag2
aF124.822
ag2
aF98.867000000000004
aF82.394999999999996
ag2
ag2
ag2
ag2
ag2
ag2
aF122.023
aF134.22800000000001
aF110.23
ag2
ag2
ag2
aF147.02500000000001
ag2
ag2
ag2
ag2
ag2
aF88.546000000000006
ag2
aF107.202
ag2
ag2
aF157.84399999999999
ag2
ag2
aF109.846
aF154.25399999999999
ag2
ag2
aF107.173
ag2
aF112.075
aF149.828
ag2
aF93.938999999999993
ag2
aF81.007999999999996
aF99.936999999999998
aF102.002
aF100.017
ag2
aF87.980999999999995
aF99.244
aF99.573999999999998
aF94.988
ag2
aF87.554000000000002
aF93.25
ag2
ag2
ag2
ag2
ag2
aF123.80200000000001
aF96.269999999999996
aF100.134
aF80.058999999999997
ag2
ag2
ag2
aF87.980999999999995
ag2
ag2
ag2
ag2
ag2
aF99.244
ag2
ag2
aF100.279
aF83.280000000000001
ag2
ag2
ag2
ag2
aF97.355000000000004
ag2
ag2
aF87.980999999999995
aF92.965999999999994
aF93.316000000000003
aF96.995000000000005
aF86.978999999999999
ag2
ag2
ag2
ag2
aF103.509
aF120.08499999999999
aF110.20999999999999
aF96.191999999999993
aF93.671999999999997
ag2
ag2
aF100.017
aF95.037999999999997
ag2
ag2
aF95.409000000000006
ag2
aF82.960999999999999
ag2
aF100.011
aF83.022999999999996
aF97.057000000000002
aF96.938999999999993
ag2
aF93.072999999999993
aF107.003
aF97.051000000000002
aF95.043999999999997
ag2
aF99.244
aF83.280000000000001
aF81.007999999999996
ag2
ag2
ag2
ag2
aF93.680000000000007
aF88.239999999999995
ag2
ag2
aF87.290000000000006
aF90.316999999999993
aF95.305000000000007
aF86.108000000000004
ag2
ag2
ag2
ag2
ag2
ag2
ag2
aF81.689999999999998
aF76.058999999999997
aF82.287000000000006
aF146.69200000000001
aF85.274000000000001
ag2
aF104.35299999999999
aF131.65700000000001
aF85.617000000000004
aF134.524
aF86.355999999999995
ag2
ag2
aF99.998999999999995
ag2
ag2
ag2
aF112.437
ag2
ag2
aF107.169
aF159.86500000000001
aF146.24100000000001
aF87.777000000000001
ag2
ag2
aF156.422
ag2
ag2
aF85.698999999999998
aF137.066
aF84.665000000000006
aF106.80500000000001
aF90.494
aF100.003
aF87.890000000000001
aF90.040000000000006
aF106.977
aF104.78700000000001
aF139.62799999999999
aF116.934
ag2
ag2
ag2
ag2
ag2
ag2
ag2
ag2
ag2
ag2
ag2
ag2
ag2
ag2
aF176.68600000000001
ag2
ag2
aF143.64500000000001
aF148.858
ag2
ag2
ag2
aF89.126000000000005
ag2
aF125.042
aF128.036
aF130.03700000000001
ag2
aF135.16300000000001
aF113.008
aF120.00700000000001
ag2
aF134.96100000000001
aF117.054
aF124.887
ag2
aF127.877
aF127.81100000000001
aF130.21700000000001
ag2
ag2
ag2
ag2
ag2
ag2
ag2
ag2
ag2
ag2
ag2
ag2
aF140.32599999999999
ag2
aF140.99700000000001
aF141.06700000000001
aF131.964
aF88.254999999999995
aF90.575000000000003
ag2
aF126.012
aF147.98599999999999
aF124.892
ag2
ag2
aF117.976
aF87.224000000000004
aF91.879999999999995
aF121.67400000000001
ag2
ag2
aF139.982
ag2
aF82.015000000000001
ag2
aF132.95599999999999
ag2
aF122.29000000000001
ag2
ag2
aF125.246
ag2
aF130.084
aF129.691
ag2
aF86.600999999999999
aF125.246
ag2
ag2
ag2
ag2
aF126.31
aF130.09200000000001
aF133.023
ag2
aF124.979
aF124.977
ag2
ag2
aF93.364000000000004
aF129.00299999999999
aF136.96299999999999
aF138.78399999999999
ag2
ag2
ag2
ag2
ag2
ag2
ag2
ag2
aF139.803
aF121.732
ag2
aF135.08500000000001
aF124.95099999999999
ag2
aF130.02199999999999
aF141.589
ag2
aF139.63
ag2
ag2
ag2
aF115.09699999999999
ag2
ag2
ag2
aF136.286
ag2
aF134.84700000000001
aF133.34999999999999
aF130.131
aF131.65799999999999
ag2
aF125.01300000000001
ag2
aF136.65199999999999
aF125.009
ag2
ag2
aF94.030000000000001
ag2
ag2
ag2
ag2
ag2
aF130.20500000000001
aF142.10499999999999
aF130.07499999999999
aF87.986999999999995
ag2
ag2
ag2
aF132.00299999999999
aF135.054
ag2
aF133.114
ag2
aF121.95999999999999
ag2
ag2
ag2
aF140.05099999999999
aF119.02800000000001
ag2
aF125.232
ag2
aF124.283
ag2
ag2
ag2
aF125.01900000000001
aF148.92400000000001
ag2
ag2
aF127.989
ag2
ag2
ag2
ag2
ag2
ag2
ag2
ag2
ag2
ag2
ag2
ag2
ag2
ag2
ag2
ag2
ag2
ag2
ag2
ag2
ag2
ag2
ag2
ag2
ag2
ag2
ag2
ag2
ag2
ag2
ag2
ag2
ag2
ag2
ag2
ag2
ag2
ag2
ag2
ag2
ag2
ag2
ag2
ag2
aF85.846999999999994
aF120.06999999999999
ag2
ag2
ag2
ag2
aF131.94
aF135.00200000000001
aF129.97999999999999
ag2
aF130.00399999999999
ag2
aF132.01400000000001
aF132.005
ag2
aF120.003
aF132.00700000000001
ag2
ag2
aF130.00399999999999
aF115.02200000000001
aF129.97999999999999
aF129.98699999999999
aF119.997
ag2
aF124.922
aF134.00999999999999
aF132.012
aF125.066
aF133.006
ag2
aF135.96000000000001
ag2
aF121.982
aF129.977
aF135.00800000000001
aF119.93000000000001
aF125.11
aF127.875
aF124.925
aF115.039
aF114.911
ag2
ag2
aF129.96700000000001
aF115.02200000000001
aF132.85300000000001
aF135.00800000000001
ag2
aF125.11
aF132.012
aF129.94
ag2
aF124.925
aF129.98699999999999
aF124.536
ag2
ag2
ag2
ag2
aF131.94
ag2
ag2
aI0
ag2
ag2
aF130.02199999999999
aF133.02099999999999
aF130.30600000000001
ag2
aF96.028999999999996
aF125.02
aF130.01300000000001
aF128.00299999999999
aF125.053
aF135.02099999999999
aF129.99600000000001
aF135.316
aF90.024000000000001
aF128.072
aF115.026
aF137.96199999999999
ag2
ag2
aF82.200000000000003
ag2
aF98.596999999999994
ag2
ag2
aF130.25200000000001
aF122.977
ag2
aF120.119
aF130.196
ag2
aF120.02500000000001
ag2
aF134.97399999999999
aF141.036
ag2
aF128.05000000000001
aF125.108
aF121.992
aF121.992
aF135.143
ag2
ag2
aF126.143
aF132.92400000000001
aF132.46899999999999
aF138.13900000000001
ag2
ag2
ag2
aF133.89099999999999
ag2
ag2
ag2
ag2
ag2
ag2
ag2
aF99.344999999999999
aF100.14
aF100.14
ag2
ag2
ag2
ag2
ag2
ag2
ag2
ag2
ag2
aF101.804
ag2
ag2
aF100.221
ag2
aF144.11799999999999
aF147.96799999999999
ag2
aF82.304000000000002
ag2
aF130.089
aF124.123
aF123.149
ag2
ag2
aF103.646
aF122.42700000000001
ag2
aF128.09299999999999
ag2
aF92.998000000000005
aF104.39700000000001
ag2
ag2
ag2
ag2
ag2
ag2
aF101.92400000000001
ag2
aF98.340000000000003
ag2
ag2
ag2
aF85.432000000000002
ag2
aF82.673000000000002
aF96.507999999999996
ag2
ag2
ag2
aF101.798
aF116.97
aF105.254
aF107.489
ag2
ag2
aF103.72
ag2
ag2
aF113.196
aF81.123999999999995
ag2
aF85.938999999999993
aF89.429000000000002
ag2
aF120.032
aF90.028999999999996
ag2
aF106.123
aF87.012
aF80.409999999999997
aF95.799000000000007
ag2
aF86.525000000000006
aF87.787999999999997
aF100.69799999999999
aF100.066
aF113.914
aF70.141000000000005
ag2
aF67.334999999999994
aF92.911000000000001
aF116.35299999999999
aF77.974000000000004
aF90.263000000000005
aF133.18199999999999
aF71.718999999999994
aF126.294
aF103.991
aF96.051000000000002
aF115.52200000000001
aF130.48400000000001
ag2
ag2
aF88.186999999999998
aF84.623000000000005
ag2
aF135.23699999999999
aF122.42100000000001
aF132.11000000000001
aF77.849000000000004
aF136.56700000000001
ag2
aF148.54499999999999
aF103.991
aF87.911000000000001
aF82.129999999999995
aF82.150000000000006
aF129.042
aF76.884
aF85.843000000000004
aF88.099000000000004
aF77.807000000000002
aF84.114999999999995
aF96.051000000000002
aF79.765000000000001
aF78.463999999999999
aF120.05500000000001
ag2
aF88.754999999999995
aF78.376000000000005
aF91.707999999999998
aF90.010999999999996
aF127.595
aF102.07299999999999
aF80.218999999999994
aF81.343999999999994
aF76.153999999999996
aF116.65300000000001
aF121.792
aF118.792
aF98.201999999999998
ag2
aF96.106999999999999
aF120.191
aF128.345
ag2
aF110.209
aF114.85899999999999
aF121.12
aF117.345
aF119.02500000000001
ag2
aF122.35899999999999
ag2
ag2
ag2
aF82.731999999999999
aF104.661
aF91.706000000000003
aF100.3
aF96.719999999999999
aF102.654
aF93.614000000000004
aF90.084999999999994
ag2
aF95.756
aF93.738
aF96.965000000000003
aF94.439999999999998
aF92.403999999999996
aF101.67400000000001
aF121.104
aF94.495999999999995
aF104.208
ag2
aF94.450000000000003
ag2
aF92.055000000000007
aF98.358000000000004
aF94.727000000000004
aF96.265000000000001
aF94.269999999999996
aF101.164
ag2
aF89.055999999999997
ag2
ag2
aF87.150999999999996
ag2
aF96.248999999999995
ag2
aF96.335999999999999
aF102.626
aF98.186000000000007
aF80.179000000000002
aF110.36199999999999
aF92.161000000000001
aF97.981999999999999
aF89.027000000000001
aF82.326999999999998
aF99.906000000000006
aF89.947999999999993
aF89.980999999999995
aF77.971000000000004
aF108.977
aF97.981999999999999
aF82.025000000000006
aF82.326999999999998
aF100.053
aF126.146
aF75.198999999999998
aF102.251
aF109.815
aF89.025999999999996
aF103.221
ag2
aF71.997
aF82.022000000000006
ag2
aF97.819000000000003
aF75.799999999999997
aF89.027000000000001
ag2
ag2
aF84.548000000000002
aF80.280000000000001
aF83.409000000000006
ag2
aF89.947999999999993
ag2
aF91.995999999999995
aF93.855000000000004
aF83.409000000000006
ag2
aF82.786000000000001
aF110.005
aF78.218000000000004
ag2
ag2
ag2
ag2
ag2
ag2
aF83.004000000000005
aF115.97199999999999
aF98.838999999999999
ag2
ag2
ag2
ag2
aF105.077
aF118.383
aF115.30800000000001
ag2
ag2
aF113.387
ag2
ag2
aF110.063
aF100.056
ag2
aF101.10299999999999
aF110.971
aF108.413
aF110.86499999999999
aF93.882999999999996
aF122.199
ag2
aF110.99299999999999
aF110.99299999999999
aF107.78400000000001
aF84.941999999999993
aF87.674000000000007
aF78.829999999999998
aF114.54600000000001
aF86.521000000000001
aF137.321
aF96.671999999999997
ag2
aF131.77099999999999
ag2
aF95.991
ag2
ag2
ag2
ag2
ag2
ag2
ag2
aF101.864
ag2
ag2
ag2
aF104.935
ag2
aF119.73699999999999
aF98.152000000000001
ag2
ag2
ag2
ag2
aF83.117999999999995
aF94.884
aF78.942999999999998
ag2
ag2
aF90.103999999999999
ag2
ag2
ag2
aF89.661000000000001
aF111.833
aF107.16500000000001
aF120.495
ag2
ag2
ag2
ag2
ag2
ag2
ag2
ag2
ag2
ag2
ag2
ag2
ag2
ag2
ag2
ag2
ag2
aF144.553
ag2
ag2
ag2
ag2
ag2
ag2
ag2
ag2
ag2
aF82.117999999999995
aF142.21100000000001
ag2
ag2
ag2
ag2
ag2
ag2
ag2
ag2
ag2
ag2
ag2
aF76.072000000000003
ag2
aF79.971000000000004
ag2
ag2
ag2
aF76.012
ag2
aF84.028000000000006
aF108.041
ag2
aF75.950999999999993
aF80.072000000000003
ag2
aF89.531999999999996
aF76.117000000000004
ag2
aF82.471000000000004
aF114.197
aF107.849
aF79.367000000000004
aF80.287999999999997
aF102.084
ag2
ag2
aF112.035
aF98.051000000000002
aF115.664
ag2
aF137.96799999999999
aF92.045000000000002
aF148.05000000000001
aF83.986999999999995
aF119.95699999999999
aF87.015000000000001
aF102.00700000000001
aF82.254000000000005
aF87.722999999999999
aF86.950000000000003
aF109.77800000000001
aF86.027000000000001
aF92.465999999999994
aF84.003
aF112.044
ag2
aF89.001999999999995
ag2
ag2
aF95.031999999999996
ag2
aF77.186999999999998
aF175.959
aF98.015000000000001
aF161.90000000000001
aF67.314999999999998
aF176.03700000000001
ag2
aF95.040999999999997
ag2
ag2
aF95.034999999999997
aF188.01499999999999
ag2
ag2
aF191.982
ag2
aF120.54000000000001
ag2
ag2
aF74.347999999999999
ag2
aF100.648
aF131.893
aF87.052999999999997
aF83.691000000000003
ag2
ag2
aF90.004999999999995
ag2
ag2
aF134.256
ag2
aF126.74299999999999
ag2
ag2
aF116.3
aF81.986000000000004
ag2
ag2
ag2
ag2
ag2
ag2
ag2
ag2
ag2
ag2
ag2
ag2
ag2
ag2
ag2
ag2
ag2
ag2
ag2
ag2
ag2
ag2
ag2
ag2
ag2
ag2
ag2
ag2
ag2
ag2
ag2
aF105.059
aF76.016000000000005
aF145.39599999999999
ag2
ag2
aF87.004000000000005
ag2
aF75.051000000000002
ag2
ag2
ag2
ag2
ag2
aF147.91200000000001
aF90.064999999999998
aF91.942999999999998
aF78.688000000000002
aF150.005
ag2
ag2
aF82.129999999999995
aF143.86699999999999
aF80.057000000000002
ag2
aF103.074
aF83.075999999999993
aF76.113
ag2
aF111.93600000000001
ag2
ag2
ag2
aF84.007000000000005
aF78.037999999999997
aF95.031999999999996
ag2
aF74.969999999999999
aF81.629999999999995
ag2
ag2
ag2
ag2
ag2
ag2
ag2
ag2
ag2
ag2
ag2
ag2
ag2
ag2
ag2
ag2
ag2
ag2
ag2
ag2
ag2
ag2
ag2
ag2
ag2
ag2
ag2
ag2
ag2
ag2
ag2
ag2
ag2
ag2
ag2
aF104.901
ag2
aF102.453
ag2
aF105.126
aF82.319999999999993
aF90.966999999999999
aF158.05199999999999
ag2
aF142.732
aF81.153999999999996
ag2
ag2
ag2
ag2
ag2
ag2
aF79.051000000000002
aF140.184
ag2
aF139.16800000000001
ag2
aF104.053
ag2
aF104.08799999999999
ag2
aF77.781000000000006
ag2
ag2
ag2
ag2
ag2
ag2
aF134.83000000000001
ag2
ag2
ag2
ag2
ag2
ag2
ag2
aF160.20400000000001
ag2
ag2
aF87.465999999999994
ag2
ag2
aF154.131
aF138.77000000000001
ag2
aF154.345
aF109.099
aF148.179
aF150.239
ag2
ag2
ag2
ag2
ag2
ag2
ag2
ag2
ag2
ag2
ag2
aF86.938000000000002
ag2
ag2
ag2
ag2
ag2
ag2
aF150.124
ag2
ag2
ag2
ag2
ag2
aF160.20400000000001
ag2
ag2
ag2
ag2
ag2
ag2
aF91.799999999999997
ag2
ag2
ag2
ag2
ag2
ag2
ag2
ag2
ag2
ag2
aF97.106999999999999
aF108.63200000000001
ag2
ag2
aF105.021
ag2
ag2
ag2
ag2
ag2
aF122.176
aF122.247
ag2
aF91.581999999999994
ag2
ag2
ag2
ag2
ag2
ag2
ag2
ag2
ag2
ag2
ag2
ag2
ag2
ag2
ag2
ag2
ag2
ag2
ag2
ag2
ag2
ag2
ag2
ag2
ag2
ag2
ag2
ag2
ag2
ag2
ag2
ag2
ag2
ag2
ag2
ag2
ag2
ag2
ag2
ag2
ag2
ag2
ag2
ag2
ag2
ag2
ag2
ag2
ag2
ag2
ag2
ag2
ag2
ag2
ag2
ag2
ag2
ag2
ag2
ag2
ag2
ag2
ag2
ag2
ag2
ag2
ag2
ag2
ag2
ag2
ag2
ag2
ag2
ag2
ag2
ag2
aF139.273
aF151.03999999999999
aF200.024
aF82.766999999999996
aF156.87700000000001
aF192.02099999999999
aF120.28700000000001
aF179.982
ag2
aF132.18299999999999
ag2
ag2
ag2
ag2
ag2
ag2
ag2
ag2
ag2
ag2
ag2
ag2
ag2
ag2
ag2
ag2
ag2
ag2
aF106.544
ag2
ag2
ag2
ag2
ag2
ag2
ag2
ag2
ag2
ag2
ag2
ag2
ag2
ag2
ag2
ag2
ag2
ag2
ag2
ag2
ag2
ag2
ag2
ag2
ag2
ag2
ag2
ag2
ag2
ag2
ag2
ag2
ag2
ag2
aF133.49600000000001
ag2
ag2
aF88.522999999999996
ag2
ag2
ag2
ag2
ag2
ag2
ag2
ag2
ag2
ag2
ag2
ag2
ag2
ag2
ag2
ag2
ag2
ag2
ag2
ag2
ag2
ag2
ag2
ag2
aF98.048000000000002
ag2
ag2
ag2
ag2
ag2
ag2
ag2
ag2
ag2
ag2
ag2
ag2
ag2
ag2
ag2
ag2
ag2
ag2
ag2
ag2
ag2
ag2
ag2
ag2
ag2
ag2
ag2
ag2
ag2
ag2
ag2
ag2
aF83.533000000000001
ag2
ag2
ag2
ag2
ag2
ag2
ag2
aF83.533000000000001
ag2
ag2
ag2
ag2
ag2
ag2
ag2
ag2
ag2
ag2
ag2
ag2
ag2
ag2
ag2
ag2
ag2
ag2
ag2
ag2
ag2
ag2
ag2
ag2
ag2
ag2
ag2
ag2
ag2
aF100.331
ag2
ag2
ag2
ag2
ag2
ag2
ag2
aF98.728999999999999
aF100.331
ag2
ag2
ag2
ag2
ag2
ag2
ag2
ag2
ag2
ag2
ag2
ag2
ag2
ag2
aF107.184
ag2
ag2
aF107.184
ag2
ag2
aF91.069999999999993
ag2
ag2
ag2
ag2
ag2
ag2
ag2
ag2
ag2
ag2
ag2
ag2
ag2
ag2
aF145.66399999999999
ag2
aF132.96799999999999
aF77.760999999999996
ag2
ag2
ag2
ag2
ag2
ag2
ag2
ag2
ag2
ag2
aF85.019999999999996
ag2
ag2
ag2
aF74.825999999999993
ag2
ag2
ag2
aF137.99000000000001
aF143.001
ag2
ag2
ag2
aF126.76300000000001
ag2
ag2
ag2
aF126.039
ag2
ag2
aF124.039
aF127.08199999999999
aF145.292
aF128.922
aF130.59
aF125.66200000000001
aF125.509
aF115.157
aF121.72499999999999
aF113.15000000000001
aF122.13500000000001
ag2
ag2
aF125.036
aF116.173
aF133.04599999999999
aF116.306
aF116.81699999999999
aF124.28700000000001
aF121.563
aF116.11499999999999
ag2
aF125.509
aF121.236
aF123.23399999999999
aF115.002
aF117.989
ag2
aF125.036
aF105.056
ag2
ag2
ag2
ag2
ag2
aF112.997
ag2
aF124.974
aF126.22199999999999
ag2
aF127.238
ag2
aF127.08199999999999
aF122.139
aF118.60899999999999
aF120.206
aF140.51599999999999
aF121.72499999999999
aF122.785
aF119.947
aF128.28999999999999
aF125.169
aF126.417
aF124.004
aF115.157
aF130.16900000000001
aF120.104
aF120.15300000000001
ag2
aF122.117
aF119.256
aF120.08199999999999
aF113.15000000000001
aF124.075
ag2
ag2
ag2
aF124.727
aF83.373999999999995
ag2
ag2
ag2
aF128.12799999999999
ag2
ag2
ag2
ag2
ag2
ag2
aF122.021
ag2
ag2
aF129.99700000000001
ag2
ag2
ag2
aF120.023
aF130.06200000000001
aF130.00899999999999
aF144.988
aF135.69499999999999
aF125.193
aF82.700999999999993
ag2
aF126.224
aF76.009
ag2
aF82.700999999999993
ag2
aF125.193
aF129.85900000000001
aF125.083
aF120.18600000000001
aF126.224
aF132.256
aF130.267
aF138.48699999999999
ag2
ag2
aF126.254
aF135.08099999999999
aF121.54900000000001
aF122.527
aF145.273
aF120.18600000000001
aF150.143
ag2
aF119.959
ag2
ag2
ag2
ag2
ag2
aF130.33000000000001
ag2
aF133.76599999999999
ag2
aF147.75
aF130.11000000000001
aF131.84
aF130.05600000000001
aF87.251000000000005
aF130.047
aF101.68899999999999
aF127.877
aF90.349999999999994
ag2
ag2
ag2
ag2
aF122.464
ag2
ag2
aF149.90600000000001
aF84.131
aF82.474000000000004
aF82.635999999999996
aF84.108999999999995
aF135.196
aF84.085999999999999
aF163.24299999999999
aF137.17599999999999
aF82.643000000000001
aF135.209
aF85.731999999999999
ag2
ag2
ag2
ag2
ag2
ag2
ag2
ag2
ag2
aF135.33600000000001
ag2
ag2
aF135.36699999999999
aF86.995999999999995
ag2
ag2
aF87.988
aF124.995
aF82.575000000000003
aF88.019000000000005
ag2
ag2
ag2
ag2
ag2
ag2
aF137.923
ag2
aF165.351
aF132.577
ag2
aF77.311000000000007
ag2
aF76.474999999999994
ag2
ag2
ag2
ag2
aF126.831
aF131.82599999999999
ag2
ag2
ag2
ag2
ag2
aF151.852
aF138.304
ag2
aF122.00700000000001
aF82.957999999999998
ag2
ag2
ag2
ag2
ag2
ag2
aF114.985
aF112.13500000000001
aF138.28299999999999
aF135.91900000000001
aF135.15299999999999
aF139.97900000000001
ag2
ag2
aI138
ag2
ag2
ag2
ag2
ag2
ag2
ag2
ag2
ag2
ag2
ag2
ag2
ag2
ag2
ag2
aF120.05500000000001
aF125.033
ag2
ag2
ag2
aF75.039000000000001
ag2
ag2
ag2
aF135.006
ag2
ag2
aF139.74700000000001
ag2
ag2
ag2
aF141.21100000000001
ag2
aF130.21100000000001
ag2
ag2
aF72.498999999999995
ag2
aF155.38300000000001
ag2
ag2
ag2
aF123.95099999999999
aF120.971
aF126.992
aF141.018
aF135.00800000000001
aF130.529
aF139.87799999999999
aF132.81399999999999
ag2
aF118.97799999999999
ag2
ag2
ag2
aF129.30600000000001
ag2
aF136.71700000000001
ag2
ag2
ag2
ag2
ag2
ag2
ag2
aF93.858999999999995
aF125.373
ag2
aF87.296000000000006
ag2
aF180.84899999999999
ag2
aF159.483
ag2
aF83.623999999999995
ag2
aF86.971999999999994
aF87.012
aF164.999
aF84.780000000000001
aF109.15600000000001
ag2
ag2
aF85.850999999999999
aF93.022000000000006
aF84.364000000000004
aF160.29499999999999
aF113.568
aF84.034999999999997
ag2
ag2
ag2
ag2
ag2
ag2
ag2
ag2
ag2
ag2
ag2
ag2
ag2
ag2
ag2
ag2
ag2
ag2
ag2
aF109.027
aF102.191
aF102.486
aF87.637
ag2
ag2
aF109.485
ag2
ag2
ag2
aF113.386
ag2
ag2
aF96.117999999999995
ag2
aF113.673
aF108.05200000000001
aF105.518
aF102.191
aF102.486
aF104.67700000000001
aF140.69300000000001
ag2
aF108.05200000000001
ag2
ag2
ag2
ag2
ag2
ag2
ag2
ag2
ag2
ag2
ag2
ag2
ag2
ag2
ag2
ag2
ag2
ag2
ag2
ag2
ag2
ag2
ag2
ag2
ag2
ag2
ag2
ag2
ag2
aF181.136
aF91.894000000000005
aF92.897999999999996
ag2
aF88.623999999999995
ag2
aF75.049999999999997
ag2
ag2
aF93.406999999999996
aF83.814999999999998
ag2
ag2
ag2
aF98.412000000000006
aF93.575999999999993
aF106.182
aF92.429000000000002
aF100.69499999999999
aF137.184
aF81.634
aF76.968000000000004
aF78.885000000000005
aF83.165000000000006
aF85.359999999999999
aF113.28400000000001
aF141.09700000000001
aF75.049999999999997
ag2
aF81.634
ag2
ag2
aF92.671999999999997
ag2
aF93.575999999999993
aF89.688999999999993
ag2
ag2
ag2
ag2
ag2
ag2
ag2
ag2
ag2
ag2
ag2
ag2
ag2
ag2
ag2
ag2
ag2
aF161.446
ag2
aF161.446
aF98.450000000000003
aF91.989999999999995
aF145.30199999999999
ag2
ag2
aF103.985
ag2
ag2
ag2
aF112.09699999999999
ag2
aF183.63200000000001
ag2
aF97.671999999999997
ag2
ag2
ag2
ag2
ag2
aF63.503999999999998
aF148.59
aF159.15899999999999
aF137.19300000000001
ag2
aF74.688999999999993
aF175.083
ag2
aF159.86500000000001
ag2
aF86.248999999999995
ag2
ag2
aF75.369
aF162.06899999999999
aF74.471999999999994
ag2
ag2
aF157.749
ag2
ag2
ag2
aF86.927999999999997
aF84.347999999999999
aF132.72499999999999
ag2
ag2
aF71.555000000000007
aF133.947
aF138.185
ag2
aF128.06899999999999
aF136.18100000000001
aF98.573999999999998
aF140.16300000000001
aF129.14599999999999
aF148.14099999999999
aF76.849000000000004
ag2
aF145.12299999999999
ag2
ag2
ag2
aF145.42599999999999
aF167.40700000000001
aF177.03800000000001
aF140.00800000000001
aF142.09200000000001
aF203.56800000000001
aF177.56
ag2
ag2
ag2
ag2
aF155.17699999999999
aF167.40700000000001
aF94.813000000000002
aF145.04499999999999
ag2
aF177.56
aF133.11099999999999
ag2
aF83.783000000000001
aF125.422
aF142.09200000000001
ag2
aF81.870999999999995
aF86.861000000000004
aF104.226
aF81.263999999999996
aF151.208
ag2
aF140.65600000000001
aF87.75
aI0
aF86.197999999999993
aF99.587000000000003
aF141.13200000000001
ag2
aF77.644999999999996
ag2
ag2
aF110.18600000000001
aF88.816000000000003
ag2
ag2
aF88.760999999999996
aF102.502
aF95.974999999999994
aF105.078
ag2
ag2
ag2
aF110.166
aF90.739999999999995
ag2
aF89.459000000000003
aF105.884
ag2
ag2
aF105.863
ag2
aF109.16200000000001
aF105.898
aF115.8
ag2
aF99.513999999999996
aF98.444000000000003
aF98.781000000000006
ag2
aF103.593
aF101.496
aF81.965000000000003
aF112.00700000000001
aF86.198999999999998
ag2
aF112.754
ag2
aF99.616
aF92.022999999999996
aF103.881
ag2
aF103.593
aF94.126000000000005
aF108.08
ag2
aF107.2
ag2
aF119.866
ag2
ag2
aF89.521000000000001
aF98.031000000000006
aF93.563999999999993
ag2
ag2
ag2
ag2
ag2
ag2
ag2
ag2
ag2
ag2
ag2
ag2
aF97.784000000000006
aF113.072
aF101.02800000000001
aF107.643
aF144.11799999999999
aF105.66800000000001
aF113.84399999999999
ag2
ag2
aF103.905
aF100.864
aF109.883
aF113.84399999999999
ag2
aF92.789000000000001
aF76.408000000000001
aF124.982
aF110.755
aF103.432
ag2
aF100.864
aF114.877
aF130.023
aF97.784000000000006
aF95.042000000000002
aF110.986
aF78.543999999999997
aF116.783
aF94.328999999999994
aF99.343999999999994
aF95.724999999999994
ag2
ag2
ag2
ag2
ag2
aF85.171999999999997
aF93.192999999999998
ag2
aF82.727000000000004
aF90.343000000000004
ag2
aF88.804000000000002
aF102.663
aF90.724000000000004
aF86.518000000000001
aF91.349999999999994
aF85.481999999999999
ag2
aF162.23699999999999
ag2
aF87.123999999999995
aF94.744
ag2
aF179.096
aF100.015
aF95.731999999999999
aF96.972999999999999
aF101.586
aF100.502
aF99.290000000000006
aF96.075000000000003
aF82.727000000000004
aF85.481999999999999
ag2
aF96.418999999999997
aF86.918000000000006
ag2
aF90.343000000000004
aF85.456999999999994
aF94.744
aF95.507000000000005
aF86.518000000000001
aF82.727000000000004
aF88.804000000000002
ag2
ag2
ag2
aF87.123999999999995
ag2
aF84.334999999999994
aF88.804000000000002
aF86.518000000000001
aF91.349999999999994
aF90.959999999999994
ag2
aF93.269000000000005
aF97.427000000000007
ag2
aF87.356999999999999
aF85.481999999999999
ag2
aF90.393000000000001
aF92.989000000000004
aF94.088999999999999
ag2
aF197.36699999999999
ag2
ag2
ag2
ag2
ag2
ag2
ag2
ag2
aF97.244
aF87.355999999999995
aF96.346000000000004
aF84.349999999999994
aF93.007999999999996
aF88.816999999999993
aF98.171999999999997
aF99.994
aF102.95999999999999
ag2
aF93.423000000000002
ag2
aF100.05500000000001
aF95.858000000000004
ag2
aF90.674999999999997
aF92.375
aF84.069000000000003
aF99.534999999999997
aF97.060000000000002
aF92.462999999999994
aF101.66800000000001
aF114.155
aF99.814999999999998
aF98.703999999999994
aF98.603999999999999
aF94.489000000000004
aF96.956000000000003
aF102.95999999999999
aF98.603999999999999
aF94.489000000000004
aF95.858000000000004
aF98.171999999999997
aF84.349999999999994
aF97.060000000000002
aF84.060000000000002
aF72.019000000000005
aF97.244
aF164.68700000000001
aF92.375
aF88.195999999999998
aF101.66800000000001
aF95.350999999999999
aF72.019000000000005
aF94.965000000000003
aF98.585999999999999
ag2
ag2
aF84.194000000000003
aF157.76400000000001
aF93.789000000000001
aF91.760999999999996
aF86.835999999999999
ag2
aF122.306
aF120.03
ag2
ag2
aF96.245999999999995
aF92.876999999999995
ag2
ag2
ag2
aF165.67500000000001
ag2
aF90.572999999999993
aF85.778999999999996
ag2
aF87.846999999999994
aF93.239000000000004
aF89.816999999999993
aF93.135000000000005
ag2
aF91.960999999999999
aF149.798
aF80.022000000000006
ag2
aF88.474000000000004
ag2
ag2
aF91.027000000000001
ag2
aF96.480000000000004
ag2
aF91.950000000000003
aF89.986000000000004
aF94.010999999999996
aI92
aF90.034999999999997
aF92.031000000000006
aF89.997
aF88.983000000000004
ag2
ag2
aF89.451999999999998
aF161.702
aF163.971
aF151.92500000000001
ag2
aF87.741
aF87.863
aF93.168000000000006
aF90.323999999999998
aF95.700999999999993
aF93.414000000000001
aF115.97199999999999
aF101.411
ag2
ag2
aF97.644000000000005
aF101.253
aF149.98699999999999
aF91.102000000000004
aF135.38900000000001
ag2
ag2
ag2
ag2
ag2
ag2
ag2
ag2
ag2
ag2
ag2
ag2
ag2
ag2
ag2
aF85.503
ag2
ag2
aF156.124
ag2
aF91.527000000000001
aF94.963999999999999
ag2
ag2
aF100.05500000000001
aF100.85899999999999
aF104.76300000000001
ag2
aF93.540999999999997
aF100.056
aF96.049000000000007
aF99.522000000000006
ag2
aF160.34800000000001
aF87.942999999999998
aF99.605999999999995
aF90.605000000000004
aF87.012
aF77.144000000000005
ag2
aF102.009
aF93.064999999999998
aF101.07599999999999
aF96.433999999999997
aF98.721000000000004
aF89.060000000000002
aF86.507000000000005
ag2
aF97.144000000000005
aF103.19199999999999
aF93.516999999999996
aF88.594999999999999
ag2
ag2
ag2
aF91.358999999999995
aF97.284000000000006
aF90.986999999999995
aF93.394999999999996
aF95.361999999999995
ag2
ag2
aF84.393000000000001
aF87.950999999999993
aF103.03
aF92.927999999999997
aF95.802999999999997
aF84.393000000000001
aF99.552000000000007
aF158.97399999999999
aF100.97799999999999
ag2
ag2
ag2
ag2
ag2
ag2
ag2
ag2
ag2
ag2
ag2
ag2
ag2
ag2
ag2
ag2
aF69.989999999999995
ag2
ag2
ag2
ag2
ag2
ag2
ag2
ag2
ag2
ag2
ag2
ag2
ag2
aF117.94199999999999
ag2
ag2
ag2
ag2
ag2
ag2
ag2
ag2
ag2
ag2
ag2
ag2
ag2
aF78.010000000000005
ag2
aF112.07299999999999
ag2
ag2
ag2
ag2
ag2
ag2
ag2
ag2
ag2
ag2
ag2
ag2
aF84.412000000000006
aF112.08499999999999
ag2
ag2
aF120.017
aF128.02000000000001
aF71.962000000000003
ag2
aF107.97199999999999
aF127.94799999999999
aF139.852
ag2
ag2
aF114.121
ag2
ag2
ag2
aF107.91800000000001
ag2
ag2
aF142.023
ag2
aF124.01300000000001
aF135.96899999999999
ag2
ag2
aF107.91800000000001
ag2
aF135.96899999999999
ag2
ag2
ag2
ag2
ag2
aF94.917000000000002
aF74.984999999999999
aF135.01400000000001
ag2
aF114.121
aF138.083
aF143.97200000000001
aF78.986999999999995
aF109.967
ag2
aF77.144000000000005
aF136.09299999999999
ag2
ag2
aF99.981999999999999
aF92.034999999999997
ag2
ag2
ag2
ag2
ag2
ag2
aF73.965000000000003
ag2
aF146.32499999999999
ag2
ag2
ag2
ag2
ag2
ag2
ag2
aF96.703000000000003
ag2
ag2
ag2
ag2
aF103.892
ag2
aF74.998000000000005
ag2
ag2
ag2
aF119.842
ag2
aF82.218000000000004
aF84.203000000000003
ag2
ag2
aF109.09699999999999
aF119.044
aF86.361000000000004
aF76.150999999999996
ag2
aF87.043999999999997
aF119.842
aF73.992000000000004
ag2
aF104.583
aF74.998000000000005
aF149.72200000000001
ag2
aF77.697000000000003
ag2
aF119.044
ag2
ag2
ag2
aF87.058000000000007
aF69.052000000000007
aF131.851
aF76.015000000000001
aF79.018000000000001
ag2
ag2
ag2
ag2
aF72.085999999999999
ag2
aF75.334000000000003
aF125.899
aF126.08499999999999
aF136.989
ag2
aF115.051
ag2
ag2
ag2
ag2
ag2
ag2
ag2
ag2
ag2
ag2
ag2
ag2
ag2
ag2
ag2
ag2
ag2
ag2
ag2
ag2
ag2
ag2
ag2
ag2
ag2
ag2
ag2
ag2
ag2
ag2
ag2
ag2
ag2
ag2
ag2
ag2
ag2
ag2
ag2
ag2
ag2
ag2
ag2
ag2
ag2
ag2
ag2
ag2
ag2
ag2
ag2
ag2
ag2
ag2
ag2
ag2
ag2
ag2
ag2
ag2
ag2
ag2
ag2
ag2
ag2
ag2
ag2
ag2
ag2
ag2
ag2
ag2
ag2
ag2
ag2
ag2
ag2
ag2
ag2
ag2
ag2
ag2
ag2
ag2
ag2
ag2
ag2
ag2
ag2
ag2
ag2
ag2
ag2
ag2
ag2
ag2
ag2
ag2
ag2
ag2
ag2
ag2
ag2
ag2
ag2
ag2
ag2
ag2
ag2
ag2
ag2
ag2
ag2
ag2
ag2
ag2
aF136.16399999999999
ag2
aF90.409000000000006
ag2
ag2
aF98.504000000000005
aF82.972999999999999
ag2
ag2
aF83.036000000000001
ag2
aF95.025000000000006
ag2
ag2
ag2
aF72.954999999999998
aF80.084999999999994
aF81.980999999999995
ag2
aF73.093999999999994
ag2
aF75.015000000000001
aF128.995
ag2
aF117.98
ag2
aF117.04300000000001
ag2
aF72.558999999999997
ag2
ag2
ag2
ag2
ag2
ag2
ag2
ag2
ag2
ag2
ag2
ag2
ag2
ag2
ag2
ag2
ag2
ag2
ag2
ag2
ag2
ag2
ag2
ag2
ag2
ag2
ag2
ag2
ag2
ag2
ag2
aF127.476
aF128.143
ag2
aF126.825
aF113.18300000000001
aF77.759
ag2
aF93.766999999999996
aF105.776
ag2
aF130.02500000000001
aF87.796000000000006
aF113.637
aF72.373000000000005
aF77.439999999999998
aF79.739000000000004
aF96.896000000000001
aF99.706000000000003
aF95.557000000000002
ag2
ag2
aF76.609999999999999
ag2
aF141.47900000000001
ag2
aF77.536000000000001
ag2
ag2
ag2
ag2
aF96.382999999999996
ag2
ag2
ag2
ag2
ag2
ag2
aF77.841999999999999
aF137.31899999999999
ag2
aF134.352
ag2
ag2
aF74.935000000000002
ag2
ag2
aF114.94
ag2
aF74.932000000000002
aF66.903999999999996
ag2
ag2
ag2
aF110.78
ag2
ag2
aF85.650000000000006
aF129.84
aF82.263999999999996
ag2
aF85.058000000000007
ag2
aF104.98
ag2
aF117.934
ag2
aF120.464
ag2
ag2
aF96.454999999999998
ag2
aF114.40600000000001
ag2
ag2
aF97.366
ag2
aF103.643
ag2
ag2
ag2
aF122.06
aF125.937
aF133.27199999999999
ag2
aF174.02799999999999
aF93.033000000000001
aF84.695999999999998
aF79.873000000000005
aF77.441999999999993
aF85.977000000000004
aF73.033000000000001
aF93.933999999999997
aF89.561999999999998
ag2
aF90.569999999999993
aF121.376
aF94.236999999999995
aF120.95699999999999
aF135.65299999999999
aF134.05799999999999
aF77.927999999999997
aF130.477
aF123.02500000000001
ag2
ag2
ag2
aF129.21100000000001
ag2
aF125.473
ag2
ag2
aF89.105000000000004
aF83.575999999999993
aF117.303
aF98.438999999999993
aF119.37
aF96.364000000000004
aF126.708
aF92.024000000000001
aF107.498
aF98.287000000000006
ag2
aF89.081000000000003
aF91.352000000000004
ag2
aF71.670000000000002
aF82.316999999999993
aF110.001
aF83.596999999999994
ag2
aF128.23400000000001
aF115.783
ag2
aF93.459999999999994
ag2
ag2
ag2
ag2
aF84.272000000000006
aF70.838999999999999
aF131.14099999999999
aF96.391000000000005
aF72.938999999999993
aF120.74299999999999
ag2
aF119.56999999999999
ag2
ag2
ag2
aF130.84100000000001
aF135.01900000000001
aF123.44
aF116.86499999999999
aF133.00800000000001
ag2
aF83.468999999999994
aF138.02500000000001
aF92.304000000000002
aF89.210999999999999
ag2
aF134.43100000000001
aF74.745000000000005
aF92.25
aF82.075000000000003
ag2
aF83.248000000000005
aF87.807000000000002
aF125.289
aF91.498999999999995
aF119.15900000000001
ag2
ag2
aF77.885999999999996
ag2
aF131.69200000000001
ag2
aF127.298
aF72.403000000000006
aF86.379000000000005
aF133.31299999999999
ag2
ag2
ag2
aF115.711
aF78.554000000000002
ag2
ag2
ag2
aF105.938
aF136.81200000000001
aF75.974999999999994
aF86.986000000000004
aF88.575000000000003
aF71.111999999999995
ag2
aF88.921999999999997
aF119.726
ag2
aF71.760000000000005
aF78.043000000000006
aF117.935
ag2
aF121.78400000000001
ag2
ag2
ag2
aF82.313000000000002
aF65.353999999999999
aF120.7
aF84.415999999999997
ag2
ag2
aF125.56399999999999
aF117.78700000000001
ag2
ag2
ag2
aF80.878
aF120.068
aF73.171999999999997
ag2
aF75.975999999999999
ag2
aF122.27800000000001
ag2
aF123.85899999999999
aF123.819
ag2
aF122.175
aF129.096
aF108.99299999999999
aF132.43600000000001
ag2
ag2
aF91.796000000000006
aF80.323999999999998
aF119.822
aF78.358000000000004
aF83.739000000000004
aF84.863
aF88.421000000000006
ag2
ag2
aF72.959999999999994
aF68.198999999999998
ag2
aF88.849999999999994
aF76.665000000000006
aF81.290999999999997
aF111.258
aF90.691000000000003
aF68.641999999999996
aF109.593
ag2
aF88.759
aF119.28
aF84.867000000000004
ag2
ag2
aF125.16200000000001
aF79.319000000000003
aF122.29600000000001
ag2
ag2
ag2
aF84.137
aF70.519000000000005
ag2
aF70.507999999999996
ag2
aF90.236000000000004
aF124.041
ag2
aF91.238
aF116.547
ag2
aF83.426000000000002
aF78.587000000000003
ag2
ag2
ag2
aF85.382999999999996
ag2
aF97.161000000000001
aF84.227000000000004
aF88.269000000000005
ag2
ag2
aF83.840000000000003
ag2
aF118.267
ag2
aF93.293000000000006
ag2
aF117.70099999999999
aF81.325000000000003
aF124.06699999999999
aF67.733999999999995
aF125.30200000000001
aF98.756
ag2
aF70.742999999999995
ag2
aF118.47199999999999
ag2
aF113.73999999999999
ag2
ag2
aF135.935
aF125.41500000000001
ag2
ag2
ag2
aF125.907
ag2
ag2
ag2
ag2
aF86.674000000000007
aF77.171999999999997
aF85.638999999999996
aF89.213999999999999
ag2
ag2
ag2
ag2
ag2
ag2
aF90.253
aF75.046999999999997
aF83.165999999999997
aF108.232
ag2
aF82.111000000000004
ag2
aF80.209999999999994
aF84.159999999999997
aF99.703999999999994
aF133.31299999999999
aF75.155000000000001
aF68.129000000000005
aF126.89400000000001
aF108.232
aF86.674000000000007
aF86.549000000000007
aF83.426000000000002
aF72.403000000000006
ag2
aF84.867000000000004
aF85.638999999999996
aF135.364
aF86.027000000000001
aF118.884
aF135.01900000000001
aF127.04900000000001
aF127.09099999999999
ag2
aF81.926000000000002
aF118.39700000000001
aF119.16500000000001
aF78.915999999999997
aF108.8
aF116.366
aF125.884
aF122.893
aF112.3
ag2
aF113.751
aF80.826999999999998
aF114.105
aF112.733
ag2
aF97.212000000000003
ag2
ag2
ag2
a.